; Function Attrs: mustprogress uwtable
define hidden noundef zeroext i1 @_ZN5arith6solver13use_nra_modelEv(ptr nocapture noundef nonnull readonly align 8 dereferenceable(1144) %this) local_unnamed_addr #3 align 2 {
entry:
  %m_nla = getelementptr inbounds i8, ptr %this, i64 576
  %0 = load ptr, ptr %m_nla, align 8
  %cmp.i.not = icmp eq ptr %0, null
  br i1 %cmp.i.not, label %land.end, label %land.rhs

land.rhs:                                         ; preds = %entry
  %call4 = tail call noundef zeroext i1 @_ZNK3nla6solver13use_nra_modelEv(ptr noundef nonnull align 8 dereferenceable(8) %0)
  br label %land.end

land.end:                                         ; preds = %land.rhs, %entry
  %1 = phi i1 [ false, %entry ], [ %call4, %land.rhs ]
  ret i1 %1
}